; ModuleID = 'source-C-CXX/4/1150.c'
source_filename = "source-C-CXX/4/1150.c"
target datalayout = "e-m:e-p270:32:32-p271:32:32-p272:64:64-i64:64-f80:128-n8:16:32:64-S128"
target triple = "x86_64-pc-linux-gnu"

@.str = private unnamed_addr constant [4 x i8] c"%lf\00", align 1
@.str.1 = private unnamed_addr constant [2 x i8] c"\0A\00", align 1
@.str.2 = private unnamed_addr constant [6 x i8] c"error\00", align 1
@.str.3 = private unnamed_addr constant [4 x i8] c"yes\00", align 1
@.str.4 = private unnamed_addr constant [3 x i8] c"no\00", align 1

; Function Attrs: nounwind sspstrong uwtable
define dso_local i32 @main() local_unnamed_addr #0 {
  %1 = alloca double, align 8
  %2 = alloca [501 x i8], align 16
  %3 = alloca [501 x i8], align 16
  %4 = bitcast double* %1 to i8*
  call void @llvm.lifetime.start.p0i8(i64 8, i8* nonnull %4) #6
  %5 = call i32 (i8*, ...) @__isoc99_scanf(i8* getelementptr inbounds ([4 x i8], [4 x i8]* @.str, i64 0, i64 0), double* nonnull %1)
  %6 = call i32 (i8*, ...) @__isoc99_scanf(i8* getelementptr inbounds ([2 x i8], [2 x i8]* @.str.1, i64 0, i64 0))
  %7 = getelementptr inbounds [501 x i8], [501 x i8]* %2, i64 0, i64 0
  call void @llvm.lifetime.start.p0i8(i64 501, i8* nonnull %7) #6
  %8 = getelementptr inbounds [501 x i8], [501 x i8]* %3, i64 0, i64 0
  call void @llvm.lifetime.start.p0i8(i64 501, i8* nonnull %8) #6
  %9 = call i32 (i8*, ...) bitcast (i32 (...)* @gets to i32 (i8*, ...)*)(i8* nonnull %7) #6
  %10 = call i32 (i8*, ...) bitcast (i32 (...)* @gets to i32 (i8*, ...)*)(i8* nonnull %8) #6
  %11 = call i64 @strlen(i8* noundef nonnull %7) #7
  %12 = trunc i64 %11 to i32
  %13 = call i64 @strlen(i8* noundef nonnull %8) #7
  %14 = trunc i64 %13 to i32
  %15 = icmp eq i32 %14, %12
  br i1 %15, label %16, label %112

16:                                               ; preds = %0
  %17 = icmp sgt i32 %12, 0
  br i1 %17, label %18, label %104

18:                                               ; preds = %16
  %19 = and i64 %11, 4294967295
  %20 = and i64 %11, 1
  %21 = icmp eq i64 %19, 1
  br i1 %21, label %32, label %22

22:                                               ; preds = %18
  %23 = sub nsw i64 %19, %20
  br label %24

24:                                               ; preds = %126, %22
  %25 = phi i64 [ 0, %22 ], [ %128, %126 ]
  %26 = phi i64 [ %23, %22 ], [ %129, %126 ]
  %27 = getelementptr inbounds [501 x i8], [501 x i8]* %2, i64 0, i64 %25
  %28 = load i8, i8* %27, align 2, !tbaa !5
  %29 = or i64 %25, 1
  %30 = getelementptr inbounds [501 x i8], [501 x i8]* %2, i64 0, i64 %29
  %31 = load i8, i8* %30, align 1, !tbaa !5
  switch i8 %31, label %126 [
    i8 65, label %116
    i8 71, label %116
    i8 67, label %116
    i8 84, label %116
  ]

32:                                               ; preds = %126, %18
  %33 = phi i1 [ undef, %18 ], [ %127, %126 ]
  %34 = phi i64 [ 0, %18 ], [ %128, %126 ]
  %35 = icmp eq i64 %20, 0
  br i1 %35, label %49, label %36

36:                                               ; preds = %32
  %37 = getelementptr inbounds [501 x i8], [501 x i8]* %2, i64 0, i64 %34
  %38 = load i8, i8* %37, align 1, !tbaa !5
  switch i8 %38, label %112 [
    i8 65, label %39
    i8 71, label %39
    i8 67, label %39
    i8 84, label %39
  ]

39:                                               ; preds = %36, %36, %36, %36
  %40 = getelementptr inbounds [501 x i8], [501 x i8]* %3, i64 0, i64 %34
  %41 = load i8, i8* %40, align 1, !tbaa !5
  %42 = add i8 %41, -65
  %43 = icmp ult i8 %42, 20
  br i1 %43, label %44, label %112

44:                                               ; preds = %39
  %45 = zext i8 %42 to i20
  %46 = lshr i20 -524219, %45
  %47 = and i20 %46, 1
  %48 = icmp ne i20 %47, 0
  br label %49

49:                                               ; preds = %44, %32
  %50 = phi i1 [ %33, %32 ], [ %48, %44 ]
  br i1 %50, label %51, label %112

51:                                               ; preds = %49
  br i1 %17, label %52, label %104

52:                                               ; preds = %51
  %53 = and i64 %11, 4294967295
  %54 = icmp ult i64 %19, 8
  br i1 %54, label %86, label %55

55:                                               ; preds = %52
  %56 = and i64 %11, 7
  %57 = sub nsw i64 %19, %56
  br label %58

58:                                               ; preds = %58, %55
  %59 = phi i64 [ 0, %55 ], [ %80, %58 ]
  %60 = phi <4 x i32> [ zeroinitializer, %55 ], [ %78, %58 ]
  %61 = phi <4 x i32> [ zeroinitializer, %55 ], [ %79, %58 ]
  %62 = getelementptr inbounds [501 x i8], [501 x i8]* %2, i64 0, i64 %59
  %63 = bitcast i8* %62 to <4 x i8>*
  %64 = load <4 x i8>, <4 x i8>* %63, align 8, !tbaa !5
  %65 = getelementptr inbounds i8, i8* %62, i64 4
  %66 = bitcast i8* %65 to <4 x i8>*
  %67 = load <4 x i8>, <4 x i8>* %66, align 4, !tbaa !5
  %68 = getelementptr inbounds [501 x i8], [501 x i8]* %3, i64 0, i64 %59
  %69 = bitcast i8* %68 to <4 x i8>*
  %70 = load <4 x i8>, <4 x i8>* %69, align 8, !tbaa !5
  %71 = getelementptr inbounds i8, i8* %68, i64 4
  %72 = bitcast i8* %71 to <4 x i8>*
  %73 = load <4 x i8>, <4 x i8>* %72, align 4, !tbaa !5
  %74 = icmp eq <4 x i8> %64, %70
  %75 = icmp eq <4 x i8> %67, %73
  %76 = zext <4 x i1> %74 to <4 x i32>
  %77 = zext <4 x i1> %75 to <4 x i32>
  %78 = add <4 x i32> %60, %76
  %79 = add <4 x i32> %61, %77
  %80 = add nuw i64 %59, 8
  %81 = icmp eq i64 %80, %57
  br i1 %81, label %82, label %58, !llvm.loop !8

82:                                               ; preds = %58
  %83 = add <4 x i32> %79, %78
  %84 = call i32 @llvm.vector.reduce.add.v4i32(<4 x i32> %83)
  %85 = icmp eq i64 %56, 0
  br i1 %85, label %101, label %86

86:                                               ; preds = %52, %82
  %87 = phi i64 [ 0, %52 ], [ %57, %82 ]
  %88 = phi i32 [ 0, %52 ], [ %84, %82 ]
  br label %89

89:                                               ; preds = %86, %89
  %90 = phi i64 [ %99, %89 ], [ %87, %86 ]
  %91 = phi i32 [ %98, %89 ], [ %88, %86 ]
  %92 = getelementptr inbounds [501 x i8], [501 x i8]* %2, i64 0, i64 %90
  %93 = load i8, i8* %92, align 1, !tbaa !5
  %94 = getelementptr inbounds [501 x i8], [501 x i8]* %3, i64 0, i64 %90
  %95 = load i8, i8* %94, align 1, !tbaa !5
  %96 = icmp eq i8 %93, %95
  %97 = zext i1 %96 to i32
  %98 = add nuw nsw i32 %91, %97
  %99 = add nuw nsw i64 %90, 1
  %100 = icmp eq i64 %99, %53
  br i1 %100, label %101, label %89, !llvm.loop !11

101:                                              ; preds = %89, %82
  %102 = phi i32 [ %84, %82 ], [ %98, %89 ]
  %103 = sitofp i32 %102 to double
  br label %104

104:                                              ; preds = %16, %101, %51
  %105 = phi double [ 0.000000e+00, %51 ], [ %103, %101 ], [ 0.000000e+00, %16 ]
  %106 = sitofp i32 %12 to double
  %107 = fdiv double %105, %106
  %108 = load double, double* %1, align 8, !tbaa !13
  %109 = fcmp ult double %107, %108
  br i1 %109, label %110, label %112

110:                                              ; preds = %104
  %111 = fcmp olt double %107, %108
  br i1 %111, label %112, label %115

112:                                              ; preds = %39, %36, %110, %104, %49, %0
  %113 = phi i8* [ getelementptr inbounds ([6 x i8], [6 x i8]* @.str.2, i64 0, i64 0), %0 ], [ getelementptr inbounds ([6 x i8], [6 x i8]* @.str.2, i64 0, i64 0), %49 ], [ getelementptr inbounds ([4 x i8], [4 x i8]* @.str.3, i64 0, i64 0), %104 ], [ getelementptr inbounds ([3 x i8], [3 x i8]* @.str.4, i64 0, i64 0), %110 ], [ getelementptr inbounds ([6 x i8], [6 x i8]* @.str.2, i64 0, i64 0), %36 ], [ getelementptr inbounds ([6 x i8], [6 x i8]* @.str.2, i64 0, i64 0), %39 ]
  %114 = call i32 (i8*, ...) @printf(i8* nonnull dereferenceable(1) %113)
  br label %115

115:                                              ; preds = %112, %110
  call void @llvm.lifetime.end.p0i8(i64 501, i8* nonnull %8) #6
  call void @llvm.lifetime.end.p0i8(i64 501, i8* nonnull %7) #6
  call void @llvm.lifetime.end.p0i8(i64 8, i8* nonnull %4) #6
  ret i32 0

116:                                              ; preds = %24, %24, %24, %24
  %117 = getelementptr inbounds [501 x i8], [501 x i8]* %3, i64 0, i64 %29
  %118 = load i8, i8* %117, align 1, !tbaa !5
  %119 = add i8 %118, -65
  %120 = icmp ult i8 %119, 20
  br i1 %120, label %121, label %126

121:                                              ; preds = %116
  %122 = zext i8 %119 to i20
  %123 = lshr i20 -524219, %122
  %124 = and i20 %123, 1
  %125 = icmp ne i20 %124, 0
  br label %126

126:                                              ; preds = %121, %116, %24
  %127 = phi i1 [ false, %24 ], [ false, %116 ], [ %125, %121 ]
  %128 = add nuw nsw i64 %25, 2
  %129 = add i64 %26, -2
  %130 = icmp eq i64 %129, 0
  br i1 %130, label %32, label %24, !llvm.loop !15
}

; Function Attrs: argmemonly mustprogress nofree nosync nounwind willreturn
declare void @llvm.lifetime.start.p0i8(i64 immarg, i8* nocapture) #1

; Function Attrs: nofree nounwind
declare noundef i32 @__isoc99_scanf(i8* nocapture noundef readonly, ...) local_unnamed_addr #2

declare i32 @gets(...) local_unnamed_addr #3

; Function Attrs: argmemonly mustprogress nofree nounwind readonly willreturn
declare i64 @strlen(i8* nocapture) local_unnamed_addr #4

; Function Attrs: nofree nounwind
declare noundef i32 @printf(i8* nocapture noundef readonly, ...) local_unnamed_addr #2

; Function Attrs: argmemonly mustprogress nofree nosync nounwind willreturn
declare void @llvm.lifetime.end.p0i8(i64 immarg, i8* nocapture) #1

; Function Attrs: nofree nosync nounwind readnone willreturn
declare i32 @llvm.vector.reduce.add.v4i32(<4 x i32>) #5


!llvm.module.flags = !{!0, !1, !2, !3}
!llvm.ident = !{!4}

!0 = !{i32 1, !"wchar_size", i32 4}
!1 = !{i32 7, !"PIC Level", i32 2}
!2 = !{i32 7, !"PIE Level", i32 2}
!3 = !{i32 7, !"uwtable", i32 1}
!4 = !{!"clang version 13.0.0"}
!5 = !{!6, !6, i64 0}
!6 = !{!"omnipotent char", !7, i64 0}
!7 = !{!"Simple C/C++ TBAA"}
!8 = distinct !{!8, !9, !10}
!9 = !{!"llvm.loop.mustprogress"}
!10 = !{!"llvm.loop.isvectorized", i32 1}
!11 = distinct !{!11, !9, !12, !10}
!12 = !{!"llvm.loop.unroll.runtime.disable"}
!13 = !{!14, !14, i64 0}
!14 = !{!"double", !6, i64 0}
!15 = distinct !{!15, !9}
